target datalayout = "e-m:e-p270:32:32-p271:32:32-p272:64:64-i64:64-i128:128-f80:128-n8:16:32:64-S128"
target triple = "x86_64-pc-linux-gnu"

%struct.H5S_t = type { %struct.H5S_extent_t, %struct.H5S_select_t }
%struct.H5S_extent_t = type { %struct.H5O_shared_t, i32, i32, i64, i32, ptr, ptr }
%struct.H5O_shared_t = type { i32, ptr, i32, %union.anon }
%union.anon = type { %struct.H5O_mesg_loc_t }
%struct.H5O_mesg_loc_t = type { i32, i64 }
%struct.H5S_select_t = type { ptr, i8, [32 x i64], i64, %union.anon.0 }
%union.anon.0 = type { ptr }
%struct.H5S_pnt_list_t = type { [32 x i64], [32 x i64], ptr, ptr, i64, ptr }

@H5S_init_g = external global i8, align 1
@H5_libterm_g = external global i8, align 1

; Function Attrs: nounwind uwtable
define internal i32 @H5S__point_is_valid(ptr noundef %0) #0 {
  %2 = alloca ptr, align 8
  %3 = alloca i32, align 4
  %4 = alloca i32, align 4
  store ptr %0, ptr %2, align 8, !tbaa !3
  call void @llvm.lifetime.start.p0(i64 4, ptr %3) #7
  call void @llvm.lifetime.start.p0(i64 4, ptr %4) #7
  store i32 1, ptr %4, align 4, !tbaa !10
  %5 = load i8, ptr @H5S_init_g, align 1, !tbaa !8, !range !12, !noundef !13
  %6 = trunc i8 %5 to i1
  br i1 %6, label %11, label %7

7:                                                ; preds = %1
  %8 = load i8, ptr @H5_libterm_g, align 1, !tbaa !8, !range !12, !noundef !13
  %9 = trunc i8 %8 to i1
  %10 = xor i1 %9, true
  br label %11

11:                                               ; preds = %7, %1
  %12 = phi i1 [ true, %1 ], [ %10, %7 ]
  %13 = xor i1 %12, true
  %14 = xor i1 %13, true
  %15 = zext i1 %14 to i32
  %16 = sext i32 %15 to i64
  %17 = call i64 @llvm.expect.i64(i64 %16, i64 1)
  %18 = icmp ne i64 %17, 0
  br i1 %18, label %19, label %87

19:                                               ; preds = %11
  store i32 0, ptr %3, align 4, !tbaa !10
  br label %20

20:                                               ; preds = %82, %19
  %21 = load i32, ptr %3, align 4, !tbaa !10
  %22 = load ptr, ptr %2, align 8, !tbaa !3
  %23 = getelementptr inbounds nuw %struct.H5S_t, ptr %22, i32 0, i32 0
  %24 = getelementptr inbounds nuw %struct.H5S_extent_t, ptr %23, i32 0, i32 4
  %25 = load i32, ptr %24, align 8, !tbaa !15
  %26 = icmp ult i32 %21, %25
  br i1 %26, label %27, label %85

27:                                               ; preds = %20
  %28 = load ptr, ptr %2, align 8, !tbaa !3
  %29 = getelementptr inbounds nuw %struct.H5S_t, ptr %28, i32 0, i32 1
  %30 = getelementptr inbounds nuw %struct.H5S_select_t, ptr %29, i32 0, i32 4
  %31 = load ptr, ptr %30, align 8, !tbaa !14
  %32 = getelementptr inbounds nuw %struct.H5S_pnt_list_t, ptr %31, i32 0, i32 1
  %33 = load i32, ptr %3, align 4, !tbaa !10
  %34 = zext i32 %33 to i64
  %35 = getelementptr inbounds nuw [32 x i64], ptr %32, i64 0, i64 %34
  %36 = load i64, ptr %35, align 8, !tbaa !23
  %37 = load ptr, ptr %2, align 8, !tbaa !3
  %38 = getelementptr inbounds nuw %struct.H5S_t, ptr %37, i32 0, i32 1
  %39 = getelementptr inbounds nuw %struct.H5S_select_t, ptr %38, i32 0, i32 2
  %40 = load i32, ptr %3, align 4, !tbaa !10
  %41 = zext i32 %40 to i64
  %42 = getelementptr inbounds nuw [32 x i64], ptr %39, i64 0, i64 %41
  %43 = load i64, ptr %42, align 8, !tbaa !23
  %44 = add i64 %36, %43
  %45 = load ptr, ptr %2, align 8, !tbaa !3
  %46 = getelementptr inbounds nuw %struct.H5S_t, ptr %45, i32 0, i32 0
  %47 = getelementptr inbounds nuw %struct.H5S_extent_t, ptr %46, i32 0, i32 5
  %48 = load ptr, ptr %47, align 8, !tbaa !25
  %49 = load i32, ptr %3, align 4, !tbaa !10
  %50 = zext i32 %49 to i64
  %51 = getelementptr inbounds nuw i64, ptr %48, i64 %50
  %52 = load i64, ptr %51, align 8, !tbaa !23
  %53 = icmp ugt i64 %44, %52
  br i1 %53, label %54, label %58

54:                                               ; preds = %27
  br label %55

55:                                               ; preds = %54
  store i32 0, ptr %4, align 4, !tbaa !10
  br label %86

56:                                               ; No predecessors!
  br label %57

57:                                               ; preds = %56
  br label %58

58:                                               ; preds = %57, %27
  %59 = load ptr, ptr %2, align 8, !tbaa !3
  %60 = getelementptr inbounds nuw %struct.H5S_t, ptr %59, i32 0, i32 1
  %61 = getelementptr inbounds nuw %struct.H5S_select_t, ptr %60, i32 0, i32 4
  %62 = load ptr, ptr %61, align 8, !tbaa !14
  %63 = getelementptr inbounds nuw %struct.H5S_pnt_list_t, ptr %62, i32 0, i32 0
  %64 = load i32, ptr %3, align 4, !tbaa !10
  %65 = zext i32 %64 to i64
  %66 = getelementptr inbounds nuw [32 x i64], ptr %63, i64 0, i64 %65
  %67 = load i64, ptr %66, align 8, !tbaa !23
  %68 = load ptr, ptr %2, align 8, !tbaa !3
  %69 = getelementptr inbounds nuw %struct.H5S_t, ptr %68, i32 0, i32 1
  %70 = getelementptr inbounds nuw %struct.H5S_select_t, ptr %69, i32 0, i32 2
  %71 = load i32, ptr %3, align 4, !tbaa !10
  %72 = zext i32 %71 to i64
  %73 = getelementptr inbounds nuw [32 x i64], ptr %70, i64 0, i64 %72
  %74 = load i64, ptr %73, align 8, !tbaa !23
  %75 = add nsw i64 %67, %74
  %76 = icmp slt i64 %75, 0
  br i1 %76, label %77, label %81

77:                                               ; preds = %58
  br label %78

78:                                               ; preds = %77
  store i32 0, ptr %4, align 4, !tbaa !10
  br label %86

79:                                               ; No predecessors!
  br label %80

80:                                               ; preds = %79
  br label %81

81:                                               ; preds = %80, %58
  br label %82

82:                                               ; preds = %81
  %83 = load i32, ptr %3, align 4, !tbaa !10
  %84 = add i32 %83, 1
  store i32 %84, ptr %3, align 4, !tbaa !10
  br label %20, !llvm.loop !26

85:                                               ; preds = %20
  br label %86

86:                                               ; preds = %85, %78, %55
  br label %87

87:                                               ; preds = %86, %11
  %88 = load i32, ptr %4, align 4, !tbaa !10
  call void @llvm.lifetime.end.p0(i64 4, ptr %4) #7
  call void @llvm.lifetime.end.p0(i64 4, ptr %3) #7
  ret i32 %88
}