; Function Attrs: nofree norecurse nosync nounwind memory(read, inaccessiblemem: none) uwtable
define internal range(i32 0, 2) i32 @H5S__point_is_valid(ptr noundef readonly captures(none) %0) #1 {
  %2 = load i8, ptr @H5S_init_g, align 1, !tbaa !3, !range !7, !noundef !8
  %3 = trunc nuw i8 %2 to i1
  %4 = load i8, ptr @H5_libterm_g, align 1, !range !7
  %5 = trunc nuw i8 %4 to i1
  %6 = xor i1 %5, true
  %7 = select i1 %3, i1 true, i1 %6
  br i1 %7, label %.preheader, label %.loopexit, !prof !9

.preheader:                                       ; preds = %1
  %8 = getelementptr inbounds nuw i8, ptr %0, i64 56
  %9 = load i32, ptr %8, align 8, !tbaa !11
  %.not = icmp eq i32 %9, 0
  br i1 %.not, label %.loopexit, label %.lr.ph

.lr.ph:                                           ; preds = %.preheader
  %10 = getelementptr inbounds nuw i8, ptr %0, i64 360
  %11 = load ptr, ptr %10, align 8, !tbaa !10
  %12 = getelementptr inbounds nuw i8, ptr %11, i64 256
  %13 = getelementptr inbounds nuw i8, ptr %0, i64 96
  %14 = getelementptr inbounds nuw i8, ptr %0, i64 64
  %15 = load ptr, ptr %14, align 8, !tbaa !28
  %wide.trip.count = zext i32 %9 to i64
  br label %17

16:                                               ; preds = %26
  %indvars.iv.next = add nuw nsw i64 %indvars.iv, 1
  %exitcond.not = icmp eq i64 %indvars.iv.next, %wide.trip.count
  br i1 %exitcond.not, label %.loopexit, label %17, !llvm.loop !29

17:                                               ; preds = %.lr.ph, %16
  %indvars.iv = phi i64 [ 0, %.lr.ph ], [ %indvars.iv.next, %16 ]
  %18 = getelementptr inbounds nuw [32 x i64], ptr %12, i64 0, i64 %indvars.iv
  %19 = load i64, ptr %18, align 8, !tbaa !21
  %20 = getelementptr inbounds nuw [32 x i64], ptr %13, i64 0, i64 %indvars.iv
  %21 = load i64, ptr %20, align 8, !tbaa !21
  %22 = add i64 %21, %19
  %23 = getelementptr inbounds nuw i64, ptr %15, i64 %indvars.iv
  %24 = load i64, ptr %23, align 8, !tbaa !21
  %25 = icmp ugt i64 %22, %24
  br i1 %25, label %.loopexit, label %26

26:                                               ; preds = %17
  %27 = getelementptr inbounds nuw [32 x i64], ptr %11, i64 0, i64 %indvars.iv
  %28 = load i64, ptr %27, align 8, !tbaa !21
  %29 = add nsw i64 %28, %21
  %30 = icmp slt i64 %29, 0
  br i1 %30, label %.loopexit, label %16

.loopexit:                                        ; preds = %16, %17, %26, %.preheader, %1
  %.0 = phi i32 [ 1, %1 ], [ 1, %.preheader ], [ 1, %16 ], [ 0, %17 ], [ 0, %26 ]
  ret i32 %.0
}